target datalayout = "e-m:e-p270:32:32-p271:32:32-p272:64:64-i64:64-i128:128-f80:128-n8:16:32:64-S128"
target triple = "x86_64-pc-linux-gnu"

%struct.avifDecoderData = type { ptr, %struct.avifTrackArray, %struct.avifTileArray, [2 x %struct.avifTileInfo], i32, ptr, ptr, [4 x i8], ptr, ptr, i32 }
%struct.avifTrackArray = type { ptr, i32, i32, i32 }
%struct.avifTileArray = type { ptr, i32, i32, i32 }
%struct.avifTileInfo = type { i32, i32, i32, %struct.avifImageGrid }
%struct.avifImageGrid = type { i32, i32, i32, i32 }
%struct.avifTrack = type { i32, i32, i32, i32, i64, i64, i64, i32, i32, i32, i32, ptr, ptr }

; Function Attrs: nounwind uwtable
define internal void @avifDecoderDataDestroy(ptr noundef %0) #0 {
  %2 = alloca ptr, align 8
  %3 = alloca i32, align 4
  %4 = alloca ptr, align 8
  store ptr %0, ptr %2, align 8
  %5 = load ptr, ptr %2, align 8
  %6 = getelementptr inbounds nuw %struct.avifDecoderData, ptr %5, i32 0, i32 0
  %7 = load ptr, ptr %6, align 8
  call void @avifMetaDestroy(ptr noundef %7)
  store i32 0, ptr %3, align 4
  br label %8

8:                                                ; preds = %41, %1
  %9 = load i32, ptr %3, align 4
  %10 = load ptr, ptr %2, align 8
  %11 = getelementptr inbounds nuw %struct.avifDecoderData, ptr %10, i32 0, i32 1
  %12 = getelementptr inbounds nuw %struct.avifTrackArray, ptr %11, i32 0, i32 2
  %13 = load i32, ptr %12, align 4
  %14 = icmp ult i32 %9, %13
  br i1 %14, label %15, label %44

15:                                               ; preds = %8
  %16 = load ptr, ptr %2, align 8
  %17 = getelementptr inbounds nuw %struct.avifDecoderData, ptr %16, i32 0, i32 1
  %18 = getelementptr inbounds nuw %struct.avifTrackArray, ptr %17, i32 0, i32 0
  %19 = load ptr, ptr %18, align 8
  %20 = load i32, ptr %3, align 4
  %21 = zext i32 %20 to i64
  %22 = getelementptr inbounds %struct.avifTrack, ptr %19, i64 %21
  store ptr %22, ptr %4, align 8
  %23 = load ptr, ptr %4, align 8
  %24 = getelementptr inbounds nuw %struct.avifTrack, ptr %23, i32 0, i32 11
  %25 = load ptr, ptr %24, align 8
  %26 = icmp ne ptr %25, null
  br i1 %26, label %27, label %31

27:                                               ; preds = %15
  %28 = load ptr, ptr %4, align 8
  %29 = getelementptr inbounds nuw %struct.avifTrack, ptr %28, i32 0, i32 11
  %30 = load ptr, ptr %29, align 8
  call void @avifSampleTableDestroy(ptr noundef %30)
  br label %31

31:                                               ; preds = %27, %15
  %32 = load ptr, ptr %4, align 8
  %33 = getelementptr inbounds nuw %struct.avifTrack, ptr %32, i32 0, i32 12
  %34 = load ptr, ptr %33, align 8
  %35 = icmp ne ptr %34, null
  br i1 %35, label %36, label %40

36:                                               ; preds = %31
  %37 = load ptr, ptr %4, align 8
  %38 = getelementptr inbounds nuw %struct.avifTrack, ptr %37, i32 0, i32 12
  %39 = load ptr, ptr %38, align 8
  call void @avifMetaDestroy(ptr noundef %39)
  br label %40

40:                                               ; preds = %36, %31
  br label %41

41:                                               ; preds = %40
  %42 = load i32, ptr %3, align 4
  %43 = add i32 %42, 1
  store i32 %43, ptr %3, align 4
  br label %8, !llvm.loop !56

44:                                               ; preds = %8
  %45 = load ptr, ptr %2, align 8
  %46 = getelementptr inbounds nuw %struct.avifDecoderData, ptr %45, i32 0, i32 1
  call void @avifArrayDestroy(ptr noundef %46)
  %47 = load ptr, ptr %2, align 8
  call void @avifDecoderDataClearTiles(ptr noundef %47)
  %48 = load ptr, ptr %2, align 8
  %49 = getelementptr inbounds nuw %struct.avifDecoderData, ptr %48, i32 0, i32 2
  call void @avifArrayDestroy(ptr noundef %49)
  %50 = load ptr, ptr %2, align 8
  call void @avifFree(ptr noundef %50)
  ret void
}