; Function Attrs: nounwind uwtable
define internal fastcc void @avifDecoderDataDestroy(ptr noundef nonnull %0) unnamed_addr #0 {
  %2 = load ptr, ptr %0, align 8
  tail call fastcc void @avifMetaDestroy(ptr noundef %2)
  %3 = getelementptr inbounds nuw i8, ptr %0, i64 8
  %4 = getelementptr inbounds nuw i8, ptr %0, i64 20
  %5 = load i32, ptr %4, align 4
  %.not17 = icmp eq i32 %5, 0
  br i1 %.not17, label %._crit_edge, label %.lr.ph

.lr.ph:                                           ; preds = %1, %15
  %indvars.iv = phi i64 [ %indvars.iv.next, %15 ], [ 0, %1 ]
  %6 = load ptr, ptr %3, align 8
  %7 = getelementptr inbounds nuw %struct.avifTrack, ptr %6, i64 %indvars.iv
  %8 = getelementptr inbounds nuw i8, ptr %7, i64 56
  %9 = load ptr, ptr %8, align 8
  %.not = icmp eq ptr %9, null
  br i1 %.not, label %11, label %10

10:                                               ; preds = %.lr.ph
  tail call fastcc void @avifSampleTableDestroy(ptr noundef %9)
  br label %11

11:                                               ; preds = %10, %.lr.ph
  %12 = getelementptr inbounds nuw i8, ptr %7, i64 64
  %13 = load ptr, ptr %12, align 8
  %.not15 = icmp eq ptr %13, null
  br i1 %.not15, label %15, label %14

14:                                               ; preds = %11
  tail call fastcc void @avifMetaDestroy(ptr noundef nonnull %13)
  br label %15

15:                                               ; preds = %11, %14
  %indvars.iv.next = add nuw nsw i64 %indvars.iv, 1
  %16 = load i32, ptr %4, align 4
  %17 = zext i32 %16 to i64
  %18 = icmp samesign ult i64 %indvars.iv.next, %17
  br i1 %18, label %.lr.ph, label %._crit_edge, !llvm.loop !71

._crit_edge:                                      ; preds = %15, %1
  tail call void @avifArrayDestroy(ptr noundef nonnull %3) #13
  tail call fastcc void @avifDecoderDataClearTiles(ptr noundef %0)
  %19 = getelementptr inbounds nuw i8, ptr %0, i64 32
  tail call void @avifArrayDestroy(ptr noundef nonnull %19) #13
  tail call void @avifFree(ptr noundef nonnull %0) #13
  ret void
}